target datalayout = "e-m:e-p270:32:32-p271:32:32-p272:64:64-i64:64-i128:128-f80:128-n8:16:32:64-S128"
target triple = "x86_64-pc-linux-gnu"

%struct.anon = type { i64, double, double, double, double, double, double, double, double, double, double, double }
%struct._generic_SUNMatrix = type { ptr, ptr, ptr }
%struct._SUNMatrixContent_Band = type { i64, i64, i64, i64, i64, i64, ptr, i64, ptr }

; Function Attrs: nounwind uwtable
define internal i32 @AdvectionJac(double noundef %0, ptr noundef %1, ptr noundef %2) #0 {
  %4 = alloca double, align 8
  %5 = alloca ptr, align 8
  %6 = alloca ptr, align 8
  %7 = alloca i64, align 8
  %8 = alloca double, align 8
  %9 = alloca double, align 8
  %10 = alloca double, align 8
  %11 = alloca double, align 8
  %12 = alloca i64, align 8
  %13 = alloca double, align 8
  %14 = alloca double, align 8
  %15 = alloca double, align 8
  store double %0, ptr %4, align 8, !tbaa !11
  store ptr %1, ptr %5, align 8, !tbaa !24
  store ptr %2, ptr %6, align 8, !tbaa !17
  call void @llvm.lifetime.start.p0(i64 8, ptr %7) #8
  %16 = load ptr, ptr %6, align 8, !tbaa !17
  %17 = getelementptr inbounds nuw %struct.anon, ptr %16, i32 0, i32 0
  %18 = load i64, ptr %17, align 8, !tbaa !34
  store i64 %18, ptr %7, align 8, !tbaa !13
  call void @llvm.lifetime.start.p0(i64 8, ptr %8) #8
  %19 = load ptr, ptr %6, align 8, !tbaa !17
  %20 = getelementptr inbounds nuw %struct.anon, ptr %19, i32 0, i32 1
  %21 = load double, ptr %20, align 8, !tbaa !46
  store double %21, ptr %8, align 8, !tbaa !11
  call void @llvm.lifetime.start.p0(i64 8, ptr %9) #8
  %22 = load ptr, ptr %6, align 8, !tbaa !17
  %23 = getelementptr inbounds nuw %struct.anon, ptr %22, i32 0, i32 8
  %24 = load double, ptr %23, align 8, !tbaa !41
  store double %24, ptr %9, align 8, !tbaa !11
  call void @llvm.lifetime.start.p0(i64 8, ptr %10) #8
  %25 = load ptr, ptr %6, align 8, !tbaa !17
  %26 = getelementptr inbounds nuw %struct.anon, ptr %25, i32 0, i32 9
  %27 = load double, ptr %26, align 8, !tbaa !42
  store double %27, ptr %10, align 8, !tbaa !11
  call void @llvm.lifetime.start.p0(i64 8, ptr %11) #8
  %28 = load ptr, ptr %6, align 8, !tbaa !17
  %29 = getelementptr inbounds nuw %struct.anon, ptr %28, i32 0, i32 10
  %30 = load double, ptr %29, align 8, !tbaa !43
  store double %30, ptr %11, align 8, !tbaa !11
  call void @llvm.lifetime.start.p0(i64 8, ptr %12) #8
  call void @llvm.lifetime.start.p0(i64 8, ptr %13) #8
  call void @llvm.lifetime.start.p0(i64 8, ptr %14) #8
  call void @llvm.lifetime.start.p0(i64 8, ptr %15) #8
  %31 = load double, ptr %9, align 8, !tbaa !11
  %32 = fneg double %31
  %33 = fdiv double %32, 2.000000e+00
  %34 = load double, ptr %8, align 8, !tbaa !11
  %35 = fdiv double %33, %34
  store double %35, ptr %13, align 8, !tbaa !11
  %36 = load double, ptr %10, align 8, !tbaa !11
  %37 = fneg double %36
  %38 = fdiv double %37, 2.000000e+00
  %39 = load double, ptr %8, align 8, !tbaa !11
  %40 = fdiv double %38, %39
  store double %40, ptr %14, align 8, !tbaa !11
  %41 = load double, ptr %11, align 8, !tbaa !11
  %42 = fneg double %41
  %43 = fdiv double %42, 2.000000e+00
  %44 = load double, ptr %8, align 8, !tbaa !11
  %45 = fdiv double %43, %44
  store double %45, ptr %15, align 8, !tbaa !11
  store i64 1, ptr %12, align 8, !tbaa !13
  br label %46

46:                                               ; preds = %235, %3
  %47 = load i64, ptr %12, align 8, !tbaa !13
  %48 = load i64, ptr %7, align 8, !tbaa !13
  %49 = sub nsw i64 %48, 1
  %50 = icmp slt i64 %47, %49
  br i1 %50, label %51, label %238

51:                                               ; preds = %46
  %52 = load double, ptr %4, align 8, !tbaa !11
  %53 = fneg double %52
  %54 = load double, ptr %13, align 8, !tbaa !11
  %55 = load ptr, ptr %5, align 8, !tbaa !24
  %56 = getelementptr inbounds nuw %struct._generic_SUNMatrix, ptr %55, i32 0, i32 0
  %57 = load ptr, ptr %56, align 8, !tbaa !59
  %58 = getelementptr inbounds nuw %struct._SUNMatrixContent_Band, ptr %57, i32 0, i32 8
  %59 = load ptr, ptr %58, align 8, !tbaa !62
  %60 = load i64, ptr %12, align 8, !tbaa !13
  %61 = sub nsw i64 %60, 1
  %62 = mul nsw i64 3, %61
  %63 = add nsw i64 %62, 0
  %64 = getelementptr inbounds ptr, ptr %59, i64 %63
  %65 = load ptr, ptr %64, align 8, !tbaa !28
  %66 = load i64, ptr %12, align 8, !tbaa !13
  %67 = mul nsw i64 3, %66
  %68 = add nsw i64 %67, 0
  %69 = load i64, ptr %12, align 8, !tbaa !13
  %70 = sub nsw i64 %69, 1
  %71 = mul nsw i64 3, %70
  %72 = add nsw i64 %71, 0
  %73 = sub nsw i64 %68, %72
  %74 = load ptr, ptr %5, align 8, !tbaa !24
  %75 = getelementptr inbounds nuw %struct._generic_SUNMatrix, ptr %74, i32 0, i32 0
  %76 = load ptr, ptr %75, align 8, !tbaa !59
  %77 = getelementptr inbounds nuw %struct._SUNMatrixContent_Band, ptr %76, i32 0, i32 5
  %78 = load i64, ptr %77, align 8, !tbaa !64
  %79 = add nsw i64 %73, %78
  %80 = getelementptr inbounds double, ptr %65, i64 %79
  %81 = load double, ptr %80, align 8, !tbaa !11
  %82 = call double @llvm.fmuladd.f64(double %53, double %54, double %81)
  store double %82, ptr %80, align 8, !tbaa !11
  %83 = load double, ptr %4, align 8, !tbaa !11
  %84 = fneg double %83
  %85 = load double, ptr %14, align 8, !tbaa !11
  %86 = load ptr, ptr %5, align 8, !tbaa !24
  %87 = getelementptr inbounds nuw %struct._generic_SUNMatrix, ptr %86, i32 0, i32 0
  %88 = load ptr, ptr %87, align 8, !tbaa !59
  %89 = getelementptr inbounds nuw %struct._SUNMatrixContent_Band, ptr %88, i32 0, i32 8
  %90 = load ptr, ptr %89, align 8, !tbaa !62
  %91 = load i64, ptr %12, align 8, !tbaa !13
  %92 = sub nsw i64 %91, 1
  %93 = mul nsw i64 3, %92
  %94 = add nsw i64 %93, 1
  %95 = getelementptr inbounds ptr, ptr %90, i64 %94
  %96 = load ptr, ptr %95, align 8, !tbaa !28
  %97 = load i64, ptr %12, align 8, !tbaa !13
  %98 = mul nsw i64 3, %97
  %99 = add nsw i64 %98, 1
  %100 = load i64, ptr %12, align 8, !tbaa !13
  %101 = sub nsw i64 %100, 1
  %102 = mul nsw i64 3, %101
  %103 = add nsw i64 %102, 1
  %104 = sub nsw i64 %99, %103
  %105 = load ptr, ptr %5, align 8, !tbaa !24
  %106 = getelementptr inbounds nuw %struct._generic_SUNMatrix, ptr %105, i32 0, i32 0
  %107 = load ptr, ptr %106, align 8, !tbaa !59
  %108 = getelementptr inbounds nuw %struct._SUNMatrixContent_Band, ptr %107, i32 0, i32 5
  %109 = load i64, ptr %108, align 8, !tbaa !64
  %110 = add nsw i64 %104, %109
  %111 = getelementptr inbounds double, ptr %96, i64 %110
  %112 = load double, ptr %111, align 8, !tbaa !11
  %113 = call double @llvm.fmuladd.f64(double %84, double %85, double %112)
  store double %113, ptr %111, align 8, !tbaa !11
  %114 = load double, ptr %4, align 8, !tbaa !11
  %115 = fneg double %114
  %116 = load double, ptr %15, align 8, !tbaa !11
  %117 = load ptr, ptr %5, align 8, !tbaa !24
  %118 = getelementptr inbounds nuw %struct._generic_SUNMatrix, ptr %117, i32 0, i32 0
  %119 = load ptr, ptr %118, align 8, !tbaa !59
  %120 = getelementptr inbounds nuw %struct._SUNMatrixContent_Band, ptr %119, i32 0, i32 8
  %121 = load ptr, ptr %120, align 8, !tbaa !62
  %122 = load i64, ptr %12, align 8, !tbaa !13
  %123 = sub nsw i64 %122, 1
  %124 = mul nsw i64 3, %123
  %125 = add nsw i64 %124, 2
  %126 = getelementptr inbounds ptr, ptr %121, i64 %125
  %127 = load ptr, ptr %126, align 8, !tbaa !28
  %128 = load i64, ptr %12, align 8, !tbaa !13
  %129 = mul nsw i64 3, %128
  %130 = add nsw i64 %129, 2
  %131 = load i64, ptr %12, align 8, !tbaa !13
  %132 = sub nsw i64 %131, 1
  %133 = mul nsw i64 3, %132
  %134 = add nsw i64 %133, 2
  %135 = sub nsw i64 %130, %134
  %136 = load ptr, ptr %5, align 8, !tbaa !24
  %137 = getelementptr inbounds nuw %struct._generic_SUNMatrix, ptr %136, i32 0, i32 0
  %138 = load ptr, ptr %137, align 8, !tbaa !59
  %139 = getelementptr inbounds nuw %struct._SUNMatrixContent_Band, ptr %138, i32 0, i32 5
  %140 = load i64, ptr %139, align 8, !tbaa !64
  %141 = add nsw i64 %135, %140
  %142 = getelementptr inbounds double, ptr %127, i64 %141
  %143 = load double, ptr %142, align 8, !tbaa !11
  %144 = call double @llvm.fmuladd.f64(double %115, double %116, double %143)
  store double %144, ptr %142, align 8, !tbaa !11
  %145 = load double, ptr %4, align 8, !tbaa !11
  %146 = load double, ptr %13, align 8, !tbaa !11
  %147 = load ptr, ptr %5, align 8, !tbaa !24
  %148 = getelementptr inbounds nuw %struct._generic_SUNMatrix, ptr %147, i32 0, i32 0
  %149 = load ptr, ptr %148, align 8, !tbaa !59
  %150 = getelementptr inbounds nuw %struct._SUNMatrixContent_Band, ptr %149, i32 0, i32 8
  %151 = load ptr, ptr %150, align 8, !tbaa !62
  %152 = load i64, ptr %12, align 8, !tbaa !13
  %153 = add nsw i64 %152, 1
  %154 = mul nsw i64 3, %153
  %155 = add nsw i64 %154, 0
  %156 = getelementptr inbounds ptr, ptr %151, i64 %155
  %157 = load ptr, ptr %156, align 8, !tbaa !28
  %158 = load i64, ptr %12, align 8, !tbaa !13
  %159 = mul nsw i64 3, %158
  %160 = add nsw i64 %159, 0
  %161 = load i64, ptr %12, align 8, !tbaa !13
  %162 = add nsw i64 %161, 1
  %163 = mul nsw i64 3, %162
  %164 = add nsw i64 %163, 0
  %165 = sub nsw i64 %160, %164
  %166 = load ptr, ptr %5, align 8, !tbaa !24
  %167 = getelementptr inbounds nuw %struct._generic_SUNMatrix, ptr %166, i32 0, i32 0
  %168 = load ptr, ptr %167, align 8, !tbaa !59
  %169 = getelementptr inbounds nuw %struct._SUNMatrixContent_Band, ptr %168, i32 0, i32 5
  %170 = load i64, ptr %169, align 8, !tbaa !64
  %171 = add nsw i64 %165, %170
  %172 = getelementptr inbounds double, ptr %157, i64 %171
  %173 = load double, ptr %172, align 8, !tbaa !11
  %174 = call double @llvm.fmuladd.f64(double %145, double %146, double %173)
  store double %174, ptr %172, align 8, !tbaa !11
  %175 = load double, ptr %4, align 8, !tbaa !11
  %176 = load double, ptr %14, align 8, !tbaa !11
  %177 = load ptr, ptr %5, align 8, !tbaa !24
  %178 = getelementptr inbounds nuw %struct._generic_SUNMatrix, ptr %177, i32 0, i32 0
  %179 = load ptr, ptr %178, align 8, !tbaa !59
  %180 = getelementptr inbounds nuw %struct._SUNMatrixContent_Band, ptr %179, i32 0, i32 8
  %181 = load ptr, ptr %180, align 8, !tbaa !62
  %182 = load i64, ptr %12, align 8, !tbaa !13
  %183 = add nsw i64 %182, 1
  %184 = mul nsw i64 3, %183
  %185 = add nsw i64 %184, 1
  %186 = getelementptr inbounds ptr, ptr %181, i64 %185
  %187 = load ptr, ptr %186, align 8, !tbaa !28
  %188 = load i64, ptr %12, align 8, !tbaa !13
  %189 = mul nsw i64 3, %188
  %190 = add nsw i64 %189, 1
  %191 = load i64, ptr %12, align 8, !tbaa !13
  %192 = add nsw i64 %191, 1
  %193 = mul nsw i64 3, %192
  %194 = add nsw i64 %193, 1
  %195 = sub nsw i64 %190, %194
  %196 = load ptr, ptr %5, align 8, !tbaa !24
  %197 = getelementptr inbounds nuw %struct._generic_SUNMatrix, ptr %196, i32 0, i32 0
  %198 = load ptr, ptr %197, align 8, !tbaa !59
  %199 = getelementptr inbounds nuw %struct._SUNMatrixContent_Band, ptr %198, i32 0, i32 5
  %200 = load i64, ptr %199, align 8, !tbaa !64
  %201 = add nsw i64 %195, %200
  %202 = getelementptr inbounds double, ptr %187, i64 %201
  %203 = load double, ptr %202, align 8, !tbaa !11
  %204 = call double @llvm.fmuladd.f64(double %175, double %176, double %203)
  store double %204, ptr %202, align 8, !tbaa !11
  %205 = load double, ptr %4, align 8, !tbaa !11
  %206 = load double, ptr %15, align 8, !tbaa !11
  %207 = load ptr, ptr %5, align 8, !tbaa !24
  %208 = getelementptr inbounds nuw %struct._generic_SUNMatrix, ptr %207, i32 0, i32 0
  %209 = load ptr, ptr %208, align 8, !tbaa !59
  %210 = getelementptr inbounds nuw %struct._SUNMatrixContent_Band, ptr %209, i32 0, i32 8
  %211 = load ptr, ptr %210, align 8, !tbaa !62
  %212 = load i64, ptr %12, align 8, !tbaa !13
  %213 = add nsw i64 %212, 1
  %214 = mul nsw i64 3, %213
  %215 = add nsw i64 %214, 2
  %216 = getelementptr inbounds ptr, ptr %211, i64 %215
  %217 = load ptr, ptr %216, align 8, !tbaa !28
  %218 = load i64, ptr %12, align 8, !tbaa !13
  %219 = mul nsw i64 3, %218
  %220 = add nsw i64 %219, 2
  %221 = load i64, ptr %12, align 8, !tbaa !13
  %222 = add nsw i64 %221, 1
  %223 = mul nsw i64 3, %222
  %224 = add nsw i64 %223, 2
  %225 = sub nsw i64 %220, %224
  %226 = load ptr, ptr %5, align 8, !tbaa !24
  %227 = getelementptr inbounds nuw %struct._generic_SUNMatrix, ptr %226, i32 0, i32 0
  %228 = load ptr, ptr %227, align 8, !tbaa !59
  %229 = getelementptr inbounds nuw %struct._SUNMatrixContent_Band, ptr %228, i32 0, i32 5
  %230 = load i64, ptr %229, align 8, !tbaa !64
  %231 = add nsw i64 %225, %230
  %232 = getelementptr inbounds double, ptr %217, i64 %231
  %233 = load double, ptr %232, align 8, !tbaa !11
  %234 = call double @llvm.fmuladd.f64(double %205, double %206, double %233)
  store double %234, ptr %232, align 8, !tbaa !11
  br label %235

235:                                              ; preds = %51
  %236 = load i64, ptr %12, align 8, !tbaa !13
  %237 = add nsw i64 %236, 1
  store i64 %237, ptr %12, align 8, !tbaa !13
  br label %46

238:                                              ; preds = %46
  call void @llvm.lifetime.end.p0(i64 8, ptr %15) #8
  call void @llvm.lifetime.end.p0(i64 8, ptr %14) #8
  call void @llvm.lifetime.end.p0(i64 8, ptr %13) #8
  call void @llvm.lifetime.end.p0(i64 8, ptr %12) #8
  call void @llvm.lifetime.end.p0(i64 8, ptr %11) #8
  call void @llvm.lifetime.end.p0(i64 8, ptr %10) #8
  call void @llvm.lifetime.end.p0(i64 8, ptr %9) #8
  call void @llvm.lifetime.end.p0(i64 8, ptr %8) #8
  call void @llvm.lifetime.end.p0(i64 8, ptr %7) #8
  ret i32 0
}

; Function Attrs: nounwind uwtable
define internal i32 @Js(double noundef %0, ptr noundef %1, ptr noundef %2, ptr noundef %3, ptr noundef %4, ptr noundef %5, ptr noundef %6, ptr noundef %7) #0 {
  %9 = alloca double, align 8
  %10 = alloca ptr, align 8
  %11 = alloca ptr, align 8
  %12 = alloca ptr, align 8
  %13 = alloca ptr, align 8
  %14 = alloca ptr, align 8
  %15 = alloca ptr, align 8
  %16 = alloca ptr, align 8
  %17 = alloca ptr, align 8
  store double %0, ptr %9, align 8, !tbaa !11
  store ptr %1, ptr %10, align 8, !tbaa !15
  store ptr %2, ptr %11, align 8, !tbaa !15
  store ptr %3, ptr %12, align 8, !tbaa !24
  store ptr %4, ptr %13, align 8, !tbaa !17
  store ptr %5, ptr %14, align 8, !tbaa !15
  store ptr %6, ptr %15, align 8, !tbaa !15
  store ptr %7, ptr %16, align 8, !tbaa !15
  call void @llvm.lifetime.start.p0(i64 8, ptr %17) #8
  %18 = load ptr, ptr %13, align 8, !tbaa !17
  store ptr %18, ptr %17, align 8, !tbaa !17
  %19 = load ptr, ptr %12, align 8, !tbaa !24
  %20 = call i32 @SUNMatZero(ptr noundef %19)
  %21 = load ptr, ptr %12, align 8, !tbaa !24
  %22 = load ptr, ptr %17, align 8, !tbaa !17
  %23 = call i32 @LaplaceMatrix(double noundef 1.000000e+00, ptr noundef %21, ptr noundef %22)
  %24 = load ptr, ptr %12, align 8, !tbaa !24
  %25 = load ptr, ptr %17, align 8, !tbaa !17
  %26 = call i32 @AdvectionJac(double noundef 1.000000e+00, ptr noundef %24, ptr noundef %25)
  call void @llvm.lifetime.end.p0(i64 8, ptr %17) #8
  ret i32 0
}