; Function Attrs: nounwind uwtable
define internal noundef i32 @Js(double %0, ptr readnone captures(none) %1, ptr readnone captures(none) %2, ptr noundef %3, ptr noundef readonly captures(none) %4, ptr readnone captures(none) %5, ptr readnone captures(none) %6, ptr readnone captures(none) %7) #0 {
  %9 = tail call i32 @SUNMatZero(ptr noundef %3) #16
  tail call fastcc void @LaplaceMatrix(ptr noundef %3, ptr noundef %4)
  %10 = load i64, ptr %4, align 8, !tbaa !16
  %11 = getelementptr inbounds nuw i8, ptr %4, i64 8
  %12 = load double, ptr %11, align 8, !tbaa !30
  %13 = getelementptr inbounds nuw i8, ptr %4, i64 64
  %14 = load double, ptr %13, align 8, !tbaa !25
  %15 = getelementptr inbounds nuw i8, ptr %4, i64 72
  %16 = load double, ptr %15, align 8, !tbaa !26
  %17 = getelementptr inbounds nuw i8, ptr %4, i64 80
  %18 = load double, ptr %17, align 8, !tbaa !27
  %19 = fmul double %14, -5.000000e-01
  %20 = fdiv double %19, %12
  %21 = fmul double %16, -5.000000e-01
  %22 = fdiv double %21, %12
  %23 = fmul double %18, -5.000000e-01
  %24 = fdiv double %23, %12
  %25 = icmp sgt i64 %10, 2
  br i1 %25, label %.lr.ph.i, label %AdvectionJac.exit

.lr.ph.i:                                         ; preds = %8
  %26 = load ptr, ptr %3, align 8, !tbaa !45
  %27 = getelementptr inbounds nuw i8, ptr %26, i64 64
  %28 = load ptr, ptr %27, align 8, !tbaa !48
  %invariant.gep.i = getelementptr i8, ptr %28, i64 -24
  %29 = getelementptr inbounds nuw i8, ptr %26, i64 40
  %30 = load i64, ptr %29, align 8, !tbaa !50
  %invariant.gep56.i = getelementptr i8, ptr %28, i64 -16
  %invariant.gep58.i = getelementptr i8, ptr %28, i64 -8
  %31 = add nsw i64 %10, -2
  br label %32

32:                                               ; preds = %32, %.lr.ph.i
  %.055.i = phi i64 [ 1, %.lr.ph.i ], [ %49, %32 ]
  %33 = mul i64 %.055.i, 3
  %gep.i = getelementptr ptr, ptr %invariant.gep.i, i64 %33
  %34 = load ptr, ptr %gep.i, align 8, !tbaa !37
  %35 = getelementptr i8, ptr %34, i64 24
  %36 = getelementptr double, ptr %35, i64 %30
  %37 = load double, ptr %36, align 8, !tbaa !31
  %38 = fsub double %37, %20
  store double %38, ptr %36, align 8, !tbaa !31
  %gep57.i = getelementptr ptr, ptr %invariant.gep56.i, i64 %33
  %39 = load ptr, ptr %gep57.i, align 8, !tbaa !37
  %40 = getelementptr i8, ptr %39, i64 24
  %41 = getelementptr double, ptr %40, i64 %30
  %42 = load double, ptr %41, align 8, !tbaa !31
  %43 = fsub double %42, %22
  store double %43, ptr %41, align 8, !tbaa !31
  %gep59.i = getelementptr ptr, ptr %invariant.gep58.i, i64 %33
  %44 = load ptr, ptr %gep59.i, align 8, !tbaa !37
  %45 = getelementptr i8, ptr %44, i64 24
  %46 = getelementptr double, ptr %45, i64 %30
  %47 = load double, ptr %46, align 8, !tbaa !31
  %48 = fsub double %47, %24
  store double %48, ptr %46, align 8, !tbaa !31
  %49 = add nuw nsw i64 %.055.i, 1
  %.idx.i = mul nuw nsw i64 %49, 24
  %50 = getelementptr inbounds nuw i8, ptr %28, i64 %.idx.i
  %51 = load ptr, ptr %50, align 8, !tbaa !37
  %52 = getelementptr double, ptr %51, i64 %30
  %53 = getelementptr i8, ptr %52, i64 -24
  %54 = load double, ptr %53, align 8, !tbaa !31
  %55 = fadd double %20, %54
  store double %55, ptr %53, align 8, !tbaa !31
  %56 = getelementptr inbounds nuw i8, ptr %50, i64 8
  %57 = load ptr, ptr %56, align 8, !tbaa !37
  %58 = getelementptr double, ptr %57, i64 %30
  %59 = getelementptr i8, ptr %58, i64 -24
  %60 = load double, ptr %59, align 8, !tbaa !31
  %61 = fadd double %22, %60
  store double %61, ptr %59, align 8, !tbaa !31
  %62 = getelementptr inbounds nuw i8, ptr %50, i64 16
  %63 = load ptr, ptr %62, align 8, !tbaa !37
  %64 = getelementptr double, ptr %63, i64 %30
  %65 = getelementptr i8, ptr %64, i64 -24
  %66 = load double, ptr %65, align 8, !tbaa !31
  %67 = fadd double %24, %66
  store double %67, ptr %65, align 8, !tbaa !31
  %exitcond.not.i = icmp eq i64 %.055.i, %31
  br i1 %exitcond.not.i, label %AdvectionJac.exit, label %32

AdvectionJac.exit:                                ; preds = %32, %8
  ret i32 0
}